target datalayout = "e-m:e-p270:32:32-p271:32:32-p272:64:64-i64:64-i128:128-f80:128-n8:16:32:64-S128"
target triple = "x86_64-unknown-linux-gnu"

%struct.Chardev = type { %struct.Object, %struct.QemuMutex, ptr, ptr, ptr, i32, i32, i8, ptr, ptr, [1 x i64] }
%struct.Object = type { ptr, ptr, ptr, i32, ptr }
%struct.QemuMutex = type { %union.pthread_mutex_t, i8 }
%union.pthread_mutex_t = type { %struct.__pthread_mutex_s }
%struct.__pthread_mutex_s = type { i32, i32, i32, i32, i32, i16, i16, %struct.__pthread_internal_list }
%struct.__pthread_internal_list = type { ptr, ptr }

; Function Attrs: nounwind sspstrong uwtable
define internal void @set_bit(i64 noundef %nr, ptr noundef %addr) #0 {
entry:
  %nr.addr = alloca i64, align 8
  %addr.addr = alloca ptr, align 8
  %mask = alloca i64, align 8
  %p = alloca ptr, align 8
  store i64 %nr, ptr %nr.addr, align 8
  store ptr %addr, ptr %addr.addr, align 8
  %0 = load i64, ptr %nr.addr, align 8
  %rem = urem i64 %0, 64
  %shl = shl i64 1, %rem
  store i64 %shl, ptr %mask, align 8
  %1 = load ptr, ptr %addr.addr, align 8
  %2 = load i64, ptr %nr.addr, align 8
  %div = udiv i64 %2, 64
  %add.ptr = getelementptr i64, ptr %1, i64 %div
  store ptr %add.ptr, ptr %p, align 8
  %3 = load i64, ptr %mask, align 8
  %4 = load ptr, ptr %p, align 8
  %5 = load i64, ptr %4, align 8
  %or = or i64 %5, %3
  store i64 %or, ptr %4, align 8
  ret void
}

; Function Attrs: nounwind sspstrong uwtable
define dso_local void @qemu_chr_set_feature(ptr noundef %chr, i32 noundef %feature) #0 {
entry:
  %chr.addr = alloca ptr, align 8
  %feature.addr = alloca i32, align 4
  store ptr %chr, ptr %chr.addr, align 8
  store i32 %feature, ptr %feature.addr, align 4
  %0 = load i32, ptr %feature.addr, align 4
  %conv = zext i32 %0 to i64
  %1 = load ptr, ptr %chr.addr, align 8
  %features = getelementptr inbounds %struct.Chardev, ptr %1, i32 0, i32 10
  %arraydecay = getelementptr inbounds [1 x i64], ptr %features, i64 0, i64 0
  call void @set_bit(i64 noundef %conv, ptr noundef %arraydecay)
  ret void
}