; Function Attrs: mustprogress nofree norecurse nosync nounwind sspstrong willreturn memory(argmem: readwrite) uwtable
define dso_local void @qemu_chr_set_feature(ptr noundef captures(none) %chr, i32 noundef %feature) local_unnamed_addr #7 {
entry:
  %conv = zext i32 %feature to i64
  %features = getelementptr inbounds nuw i8, ptr %chr, i64 144
  %rem.i = and i64 %conv, 63
  %shl.i = shl nuw i64 1, %rem.i
  %div2.i = lshr i64 %conv, 6
  %add.ptr.i = getelementptr i64, ptr %features, i64 %div2.i
  %0 = load i64, ptr %add.ptr.i, align 8
  %or.i = or i64 %0, %shl.i
  store i64 %or.i, ptr %add.ptr.i, align 8
  ret void
}